target datalayout = "e-m:e-p270:32:32-p271:32:32-p272:64:64-i64:64-i128:128-f80:128-n8:16:32:64-S128"
target triple = "x86_64-pc-linux-gnu"

%class.XMMRegister = type { i32 }
%class.MachNode = type { %class.Node.base, i8, i16, ptr }
%class.Node.base = type <{ ptr, ptr, ptr, i32, i32, i32, i32, i32, i32, i32 }>
%class.MachTypeNode = type { %class.MachNode, ptr }
%class.reduction2DNode = type { %class.MachTypeNode, [5 x ptr] }

@_ZL6xnoreg = internal constant %class.XMMRegister { i32 -1 }, align 4

; Function Attrs: mustprogress nounwind uwtable
define linkonce_odr hidden void @_ZN11XMMRegisterC2Eib(ptr noundef nonnull align 4 dereferenceable(4) %0, i32 noundef %1, i1 noundef zeroext %2) unnamed_addr #1 comdat align 2 {
  %4 = alloca ptr, align 8
  %5 = alloca i32, align 4
  %6 = alloca i8, align 1
  store ptr %0, ptr %4, align 8
  store i32 %1, ptr %5, align 4
  %7 = zext i1 %2 to i8
  store i8 %7, ptr %6, align 1
  %8 = load ptr, ptr %4, align 8
  %9 = getelementptr inbounds %class.XMMRegister, ptr %8, i32 0, i32 0
  %10 = load i32, ptr %5, align 4
  store i32 %10, ptr %9, align 4
  ret void
}

; Function Attrs: mustprogress nounwind uwtable
define linkonce_odr hidden i32 @_Z14as_XMMRegisteri(i32 noundef %0) #1 comdat {
  %2 = alloca %class.XMMRegister, align 4
  %3 = alloca i32, align 4
  store i32 %0, ptr %3, align 4
  %4 = load i32, ptr %3, align 4
  %5 = icmp sle i32 0, %4
  br i1 %5, label %6, label %11

6:                                                ; preds = %1
  %7 = load i32, ptr %3, align 4
  %8 = icmp slt i32 %7, 32
  br i1 %8, label %9, label %11

9:                                                ; preds = %6
  %10 = load i32, ptr %3, align 4
  call void @_ZN11XMMRegisterC2Eib(ptr noundef nonnull align 4 dereferenceable(4) %2, i32 noundef %10, i1 noundef zeroext false)
  br label %12

11:                                               ; preds = %6, %1
  call void @llvm.memcpy.p0.p0.i64(ptr align 4 %2, ptr align 4 @_ZL6xnoreg, i64 4, i1 false)
  br label %12

12:                                               ; preds = %11, %9
  %13 = getelementptr inbounds %class.XMMRegister, ptr %2, i32 0, i32 0
  %14 = load i32, ptr %13, align 4
  ret i32 %14
}

; Function Attrs: mustprogress nounwind uwtable
define linkonce_odr hidden i32 @_ZNK8MachOper14as_XMMRegisterEP13PhaseRegAllocPK4Nodei(ptr noundef nonnull align 8 dereferenceable(8) %0, ptr noundef %1, ptr noundef %2, i32 noundef %3) #1 comdat align 2 {
  %5 = alloca %class.XMMRegister, align 4
  %6 = alloca ptr, align 8
  %7 = alloca ptr, align 8
  %8 = alloca ptr, align 8
  %9 = alloca i32, align 4
  store ptr %0, ptr %6, align 8
  store ptr %1, ptr %7, align 8
  store ptr %2, ptr %8, align 8
  store i32 %3, ptr %9, align 4
  %10 = load ptr, ptr %6, align 8
  %11 = load ptr, ptr %7, align 8
  %12 = load ptr, ptr %8, align 8
  %13 = load i32, ptr %9, align 4
  %14 = load ptr, ptr %10, align 8
  %15 = getelementptr inbounds ptr, ptr %14, i64 5
  %16 = load ptr, ptr %15, align 8
  %17 = call noundef i32 %16(ptr noundef nonnull align 8 dereferenceable(8) %10, ptr noundef %11, ptr noundef %12, i32 noundef %13)
  %18 = call i32 @_Z14as_XMMRegisteri(i32 noundef %17)
  %19 = getelementptr inbounds %class.XMMRegister, ptr %5, i32 0, i32 0
  store i32 %18, ptr %19, align 4
  %20 = getelementptr inbounds %class.XMMRegister, ptr %5, i32 0, i32 0
  %21 = load i32, ptr %20, align 4
  ret i32 %21
}

; Function Attrs: mustprogress nounwind uwtable
define linkonce_odr hidden noundef ptr @_ZNK15reduction2DNode10opnd_arrayEj(ptr noundef nonnull align 8 dereferenceable(112) %0, i32 noundef %1) #1 comdat align 2 {
  %3 = alloca ptr, align 8
  %4 = alloca i32, align 4
  store ptr %0, ptr %3, align 8
  store i32 %1, ptr %4, align 4
  %5 = load ptr, ptr %3, align 8
  %6 = getelementptr inbounds %class.reduction2DNode, ptr %5, i32 0, i32 1
  %7 = load i32, ptr %4, align 4
  %8 = zext i32 %7 to i64
  %9 = getelementptr inbounds [5 x ptr], ptr %6, i64 0, i64 %8
  %10 = load ptr, ptr %9, align 8
  ret ptr %10
}

; Function Attrs: mustprogress nounwind uwtable
define hidden void @_ZNK15reduction2DNode4emitEP17C2_MacroAssemblerP13PhaseRegAlloc(ptr noundef nonnull align 8 dereferenceable(112) %0, ptr noundef %1, ptr noundef %2) unnamed_addr #1 align 2 {
  %4 = alloca ptr, align 8
  %5 = alloca ptr, align 8
  %6 = alloca ptr, align 8
  %7 = alloca i32, align 4
  %8 = alloca i32, align 4
  %9 = alloca i32, align 4
  %10 = alloca i32, align 4
  %11 = alloca i32, align 4
  %12 = alloca i32, align 4
  %13 = alloca %class.XMMRegister, align 4
  %14 = alloca %class.XMMRegister, align 4
  %15 = alloca %class.XMMRegister, align 4
  %16 = alloca %class.XMMRegister, align 4
  store ptr %0, ptr %4, align 8
  store ptr %1, ptr %5, align 8
  store ptr %2, ptr %6, align 8
  %17 = load ptr, ptr %4, align 8
  store i32 1, ptr %7, align 4
  store i32 1, ptr %8, align 4
  %18 = load i32, ptr %8, align 4
  %19 = call noundef ptr @_ZNK15reduction2DNode10opnd_arrayEj(ptr noundef nonnull align 8 dereferenceable(112) %17, i32 noundef 1)
  %20 = load ptr, ptr %19, align 8
  %21 = getelementptr inbounds ptr, ptr %20, i64 1
  %22 = load ptr, ptr %21, align 8
  %23 = call noundef i32 %22(ptr noundef nonnull align 8 dereferenceable(8) %19)
  %24 = add i32 %18, %23
  store i32 %24, ptr %9, align 4
  %25 = load i32, ptr %9, align 4
  %26 = call noundef ptr @_ZNK15reduction2DNode10opnd_arrayEj(ptr noundef nonnull align 8 dereferenceable(112) %17, i32 noundef 2)
  %27 = load ptr, ptr %26, align 8
  %28 = getelementptr inbounds ptr, ptr %27, i64 1
  %29 = load ptr, ptr %28, align 8
  %30 = call noundef i32 %29(ptr noundef nonnull align 8 dereferenceable(8) %26)
  %31 = add i32 %25, %30
  store i32 %31, ptr %10, align 4
  %32 = load ptr, ptr %17, align 8
  %33 = getelementptr inbounds ptr, ptr %32, i64 41
  %34 = load ptr, ptr %33, align 8
  %35 = call noundef i32 %34(ptr noundef nonnull align 8 dereferenceable(112) %17)
  store i32 %35, ptr %11, align 4
  %36 = call noundef ptr @_ZNK15reduction2DNode10opnd_arrayEj(ptr noundef nonnull align 8 dereferenceable(112) %17, i32 noundef 2)
  %37 = call noundef i32 @_ZN7Matcher13vector_lengthEPK8MachNodePK8MachOper(ptr noundef %17, ptr noundef %36)
  store i32 %37, ptr %12, align 4
  %38 = load ptr, ptr %5, align 8
  %39 = load i32, ptr %11, align 4
  %40 = load i32, ptr %12, align 4
  %41 = call noundef ptr @_ZNK15reduction2DNode10opnd_arrayEj(ptr noundef nonnull align 8 dereferenceable(112) %17, i32 noundef 1)
  %42 = load ptr, ptr %6, align 8
  %43 = load i32, ptr %8, align 4
  %44 = call i32 @_ZNK8MachOper14as_XMMRegisterEP13PhaseRegAllocPK4Nodei(ptr noundef nonnull align 8 dereferenceable(8) %41, ptr noundef %42, ptr noundef %17, i32 noundef %43)
  %45 = getelementptr inbounds %class.XMMRegister, ptr %13, i32 0, i32 0
  store i32 %44, ptr %45, align 4
  %46 = call noundef ptr @_ZNK15reduction2DNode10opnd_arrayEj(ptr noundef nonnull align 8 dereferenceable(112) %17, i32 noundef 2)
  %47 = load ptr, ptr %6, align 8
  %48 = load i32, ptr %9, align 4
  %49 = call i32 @_ZNK8MachOper14as_XMMRegisterEP13PhaseRegAllocPK4Nodei(ptr noundef nonnull align 8 dereferenceable(8) %46, ptr noundef %47, ptr noundef %17, i32 noundef %48)
  %50 = getelementptr inbounds %class.XMMRegister, ptr %14, i32 0, i32 0
  store i32 %49, ptr %50, align 4
  %51 = call noundef ptr @_ZNK15reduction2DNode10opnd_arrayEj(ptr noundef nonnull align 8 dereferenceable(112) %17, i32 noundef 3)
  %52 = load ptr, ptr %6, align 8
  %53 = load i32, ptr %10, align 4
  %54 = call i32 @_ZNK8MachOper14as_XMMRegisterEP13PhaseRegAllocPK4Nodei(ptr noundef nonnull align 8 dereferenceable(8) %51, ptr noundef %52, ptr noundef %17, i32 noundef %53)
  %55 = getelementptr inbounds %class.XMMRegister, ptr %15, i32 0, i32 0
  store i32 %54, ptr %55, align 4
  call void @llvm.memcpy.p0.p0.i64(ptr align 4 %16, ptr align 4 @_ZL6xnoreg, i64 4, i1 false)
  %56 = getelementptr inbounds %class.XMMRegister, ptr %13, i32 0, i32 0
  %57 = load i32, ptr %56, align 4
  %58 = getelementptr inbounds %class.XMMRegister, ptr %14, i32 0, i32 0
  %59 = load i32, ptr %58, align 4
  %60 = getelementptr inbounds %class.XMMRegister, ptr %15, i32 0, i32 0
  %61 = load i32, ptr %60, align 4
  %62 = getelementptr inbounds %class.XMMRegister, ptr %16, i32 0, i32 0
  %63 = load i32, ptr %62, align 4
  call void @_ZN17C2_MacroAssembler9reduce_fpEii11XMMRegisterS0_S0_S0_(ptr noundef nonnull align 8 dereferenceable(40) %38, i32 noundef %39, i32 noundef %40, i32 %57, i32 %59, i32 %61, i32 %63)
  ret void
}