; Function Attrs: mustprogress nounwind uwtable
define hidden void @_ZNK15reduction2DNode4emitEP17C2_MacroAssemblerP13PhaseRegAlloc(ptr noundef nonnull align 8 dereferenceable(112) %0, ptr noundef %1, ptr noundef %2) unnamed_addr #3 align 2 {
  %4 = getelementptr inbounds i8, ptr %0, i64 80
  %5 = load ptr, ptr %4, align 8
  %6 = load ptr, ptr %5, align 8
  %7 = getelementptr inbounds i8, ptr %6, i64 8
  %8 = load ptr, ptr %7, align 8
  %9 = tail call noundef i32 %8(ptr noundef nonnull align 8 dereferenceable(8) %5) #23
  %10 = add i32 %9, 1
  %11 = getelementptr inbounds i8, ptr %0, i64 88
  %12 = load ptr, ptr %11, align 8
  %13 = load ptr, ptr %12, align 8
  %14 = getelementptr inbounds i8, ptr %13, i64 8
  %15 = load ptr, ptr %14, align 8
  %16 = tail call noundef i32 %15(ptr noundef nonnull align 8 dereferenceable(8) %12) #23
  %17 = add i32 %16, %10
  %18 = load ptr, ptr %0, align 8
  %19 = getelementptr inbounds i8, ptr %18, i64 328
  %20 = load ptr, ptr %19, align 8
  %21 = tail call noundef i32 %20(ptr noundef nonnull align 8 dereferenceable(112) %0) #23
  %22 = load ptr, ptr %11, align 8
  %23 = tail call noundef i32 @_ZN7Matcher13vector_lengthEPK8MachNodePK8MachOper(ptr noundef nonnull %0, ptr noundef %22) #23
  %24 = load ptr, ptr %4, align 8
  %25 = load ptr, ptr %24, align 8
  %26 = getelementptr inbounds i8, ptr %25, i64 40
  %27 = load ptr, ptr %26, align 8
  %28 = tail call noundef i32 %27(ptr noundef nonnull align 8 dereferenceable(8) %24, ptr noundef %2, ptr noundef nonnull %0, i32 noundef 1) #23
  %or.cond.i.i = icmp ult i32 %28, 32
  %spec.select.i.i = select i1 %or.cond.i.i, i32 %28, i32 -1
  %29 = load ptr, ptr %11, align 8
  %30 = load ptr, ptr %29, align 8
  %31 = getelementptr inbounds i8, ptr %30, i64 40
  %32 = load ptr, ptr %31, align 8
  %33 = tail call noundef i32 %32(ptr noundef nonnull align 8 dereferenceable(8) %29, ptr noundef %2, ptr noundef nonnull %0, i32 noundef %10) #23
  %or.cond.i.i14 = icmp ult i32 %33, 32
  %spec.select.i.i15 = select i1 %or.cond.i.i14, i32 %33, i32 -1
  %34 = getelementptr inbounds i8, ptr %0, i64 96
  %35 = load ptr, ptr %34, align 8
  %36 = load ptr, ptr %35, align 8
  %37 = getelementptr inbounds i8, ptr %36, i64 40
  %38 = load ptr, ptr %37, align 8
  %39 = tail call noundef i32 %38(ptr noundef nonnull align 8 dereferenceable(8) %35, ptr noundef %2, ptr noundef nonnull %0, i32 noundef %17) #23
  %or.cond.i.i16 = icmp ult i32 %39, 32
  %spec.select.i.i17 = select i1 %or.cond.i.i16, i32 %39, i32 -1
  tail call void @_ZN17C2_MacroAssembler9reduce_fpEii11XMMRegisterS0_S0_S0_(ptr noundef nonnull align 8 dereferenceable(40) %1, i32 noundef %21, i32 noundef %23, i32 %spec.select.i.i, i32 %spec.select.i.i15, i32 %spec.select.i.i17, i32 -1) #23
  ret void
}